	.section	__TEXT,__text,regular,pure_instructions
	.build_version macos, 26, 0	sdk_version 26, 1
	.file	0 "/Users/knix/dev/k1" "test_src/modules_test/libs/foo.c" md5 0xf99fb812e329f4fce9e19598c25df56f
	.globl	_very_small                     ; -- Begin function very_small
	.p2align	2
_very_small:                            ; @very_small
Lfunc_begin0:
	.loc	0 6 0                           ; test_src/modules_test/libs/foo.c:6:0
	.cfi_startproc
; %bb.0:
	sub	sp, sp, #48
	stp	x29, x30, [sp, #32]             ; 16-byte Folded Spill
	add	x29, sp, #32
	.cfi_def_cfa w29, 16
	.cfi_offset w30, -8
	.cfi_offset w29, -16
	mov	x8, x0
	sturb	w8, [x29, #-2]
	mov	x8, x1
	sturb	w8, [x29, #-3]
Ltmp0:
	.loc	0 7 13 prologue_end             ; test_src/modules_test/libs/foo.c:7:13
	sturb	wzr, [x29, #-1]
	.loc	0 8 12                          ; test_src/modules_test/libs/foo.c:8:12
	ldursb	w9, [x29, #-2]
	.loc	0 8 7 is_stmt 0                 ; test_src/modules_test/libs/foo.c:8:7
	ldursb	w8, [x29, #-1]
	add	w8, w8, w9
	sturb	w8, [x29, #-1]
	.loc	0 9 12 is_stmt 1                ; test_src/modules_test/libs/foo.c:9:12
	ldursb	w9, [x29, #-3]
	.loc	0 9 7 is_stmt 0                 ; test_src/modules_test/libs/foo.c:9:7
	ldursb	w8, [x29, #-1]
	add	w8, w8, w9
	sturb	w8, [x29, #-1]
	.loc	0 10 52 is_stmt 1               ; test_src/modules_test/libs/foo.c:10:52
	ldursb	w12, [x29, #-2]
	.loc	0 10 57 is_stmt 0               ; test_src/modules_test/libs/foo.c:10:57
	ldursb	w11, [x29, #-3]
	.loc	0 10 62                         ; test_src/modules_test/libs/foo.c:10:62
	ldursb	w10, [x29, #-1]
	.loc	0 10 3                          ; test_src/modules_test/libs/foo.c:10:3
	mov	x9, sp
                                        ; implicit-def: $x8
	mov	x8, x12
	str	x8, [x9]
                                        ; implicit-def: $x8
	mov	x8, x11
	str	x8, [x9, #8]
                                        ; implicit-def: $x8
	mov	x8, x10
	str	x8, [x9, #16]
	adrp	x0, l_.str@PAGE
	add	x0, x0, l_.str@PAGEOFF
	bl	_printf
	.loc	0 11 3 is_stmt 1                ; test_src/modules_test/libs/foo.c:11:3
	ldurb	w0, [x29, #-1]
	.loc	0 11 3 epilogue_begin is_stmt 0 ; test_src/modules_test/libs/foo.c:11:3
	ldp	x29, x30, [sp, #32]             ; 16-byte Folded Reload
	add	sp, sp, #48
	ret
Ltmp1:
Lfunc_end0:
	.cfi_endproc
                                        ; -- End function
	.globl	_small                          ; -- Begin function small
	.p2align	2
_small:                                 ; @small
Lfunc_begin1:
	.loc	0 15 0 is_stmt 1                ; test_src/modules_test/libs/foo.c:15:0
	.cfi_startproc
; %bb.0:
	sub	sp, sp, #16
	.cfi_def_cfa_offset 16
	mov	x8, x0
	str	w8, [sp, #8]
	mov	x8, x1
	str	w8, [sp, #4]
Ltmp3:
	.loc	0 16 9 prologue_end             ; test_src/modules_test/libs/foo.c:16:9
	str	wzr, [sp, #12]
	.loc	0 17 12                         ; test_src/modules_test/libs/foo.c:17:12
	ldrsb	w9, [sp, #8]
	.loc	0 17 7 is_stmt 0                ; test_src/modules_test/libs/foo.c:17:7
	ldrsb	w8, [sp, #12]
	add	w8, w8, w9
	strb	w8, [sp, #12]
	.loc	0 18 12 is_stmt 1               ; test_src/modules_test/libs/foo.c:18:12
	ldrsb	w9, [sp, #9]
	.loc	0 18 7 is_stmt 0                ; test_src/modules_test/libs/foo.c:18:7
	ldrsb	w8, [sp, #13]
	add	w8, w8, w9
	strb	w8, [sp, #13]
	.loc	0 19 12 is_stmt 1               ; test_src/modules_test/libs/foo.c:19:12
	ldrsb	w9, [sp, #10]
	.loc	0 19 7 is_stmt 0                ; test_src/modules_test/libs/foo.c:19:7
	ldrsb	w8, [sp, #14]
	add	w8, w8, w9
	strb	w8, [sp, #14]
	.loc	0 20 12 is_stmt 1               ; test_src/modules_test/libs/foo.c:20:12
	ldrsb	w9, [sp, #11]
	.loc	0 20 7 is_stmt 0                ; test_src/modules_test/libs/foo.c:20:7
	ldrsb	w8, [sp, #15]
	add	w8, w8, w9
	strb	w8, [sp, #15]
	.loc	0 21 12 is_stmt 1               ; test_src/modules_test/libs/foo.c:21:12
	ldrsb	w9, [sp, #4]
	.loc	0 21 7 is_stmt 0                ; test_src/modules_test/libs/foo.c:21:7
	ldrsb	w8, [sp, #12]
	add	w8, w8, w9
	strb	w8, [sp, #12]
	.loc	0 22 12 is_stmt 1               ; test_src/modules_test/libs/foo.c:22:12
	ldrsb	w9, [sp, #5]
	.loc	0 22 7 is_stmt 0                ; test_src/modules_test/libs/foo.c:22:7
	ldrsb	w8, [sp, #13]
	add	w8, w8, w9
	strb	w8, [sp, #13]
	.loc	0 23 12 is_stmt 1               ; test_src/modules_test/libs/foo.c:23:12
	ldrsb	w9, [sp, #6]
	.loc	0 23 7 is_stmt 0                ; test_src/modules_test/libs/foo.c:23:7
	ldrsb	w8, [sp, #14]
	add	w8, w8, w9
	strb	w8, [sp, #14]
	.loc	0 24 12 is_stmt 1               ; test_src/modules_test/libs/foo.c:24:12
	ldrsb	w9, [sp, #7]
	.loc	0 24 7 is_stmt 0                ; test_src/modules_test/libs/foo.c:24:7
	ldrsb	w8, [sp, #15]
	add	w8, w8, w9
	strb	w8, [sp, #15]
	.loc	0 25 3 is_stmt 1                ; test_src/modules_test/libs/foo.c:25:3
	ldr	w0, [sp, #12]
	.loc	0 25 3 epilogue_begin is_stmt 0 ; test_src/modules_test/libs/foo.c:25:3
	add	sp, sp, #16
	ret
Ltmp4:
Lfunc_end1:
	.cfi_endproc
                                        ; -- End function
	.globl	_medium                         ; -- Begin function medium
	.p2align	2
_medium:                                ; @medium
Lfunc_begin2:
	.loc	0 29 0 is_stmt 1                ; test_src/modules_test/libs/foo.c:29:0
	.cfi_startproc
; %bb.0:
	sub	sp, sp, #48
	.cfi_def_cfa_offset 48
	str	x0, [sp, #16]
	str	x1, [sp, #24]
	str	x2, [sp]
	str	x3, [sp, #8]
Ltmp6:
	.loc	0 30 10 prologue_end            ; test_src/modules_test/libs/foo.c:30:10
	str	xzr, [sp, #32]
	str	xzr, [sp, #40]
	.loc	0 31 12                         ; test_src/modules_test/libs/foo.c:31:12
	ldr	x9, [sp, #16]
	.loc	0 31 7 is_stmt 0                ; test_src/modules_test/libs/foo.c:31:7
	ldr	x8, [sp, #32]
	add	x8, x8, x9
	str	x8, [sp, #32]
	.loc	0 32 12 is_stmt 1               ; test_src/modules_test/libs/foo.c:32:12
	ldr	x9, [sp, #24]
	.loc	0 32 7 is_stmt 0                ; test_src/modules_test/libs/foo.c:32:7
	ldr	x8, [sp, #40]
	add	x8, x8, x9
	str	x8, [sp, #40]
	.loc	0 33 12 is_stmt 1               ; test_src/modules_test/libs/foo.c:33:12
	ldr	x9, [sp]
	.loc	0 33 7 is_stmt 0                ; test_src/modules_test/libs/foo.c:33:7
	ldr	x8, [sp, #32]
	add	x8, x8, x9
	str	x8, [sp, #32]
	.loc	0 34 12 is_stmt 1               ; test_src/modules_test/libs/foo.c:34:12
	ldr	x9, [sp, #8]
	.loc	0 34 7 is_stmt 0                ; test_src/modules_test/libs/foo.c:34:7
	ldr	x8, [sp, #40]
	add	x8, x8, x9
	str	x8, [sp, #40]
	.loc	0 35 3 is_stmt 1                ; test_src/modules_test/libs/foo.c:35:3
	ldr	x0, [sp, #32]
	ldr	x1, [sp, #40]
	.loc	0 35 3 epilogue_begin is_stmt 0 ; test_src/modules_test/libs/foo.c:35:3
	add	sp, sp, #48
	ret
Ltmp7:
Lfunc_end2:
	.cfi_endproc
                                        ; -- End function
	.globl	_large                          ; -- Begin function large
	.p2align	2
_large:                                 ; @large
Lfunc_begin3:
	.loc	0 41 0 is_stmt 1                ; test_src/modules_test/libs/foo.c:41:0
	.cfi_startproc
; %bb.0:
	sub	sp, sp, #16
	.cfi_def_cfa_offset 16
	mov	x9, x8
	mov	x8, x0
	str	x8, [sp, #8]
	mov	x8, x1
	str	x8, [sp]
Ltmp9:
	;DEBUG_VALUE: large:r <- [$x9+0]
	.loc	0 42 9 prologue_end             ; test_src/modules_test/libs/foo.c:42:9
	movi.2d	v0, #0000000000000000
	str	q0, [x9]
	str	q0, [x9, #16]
	.loc	0 43 22                         ; test_src/modules_test/libs/foo.c:43:22
	ldr	x10, [x0]
	.loc	0 43 12 is_stmt 0               ; test_src/modules_test/libs/foo.c:43:12
	ldr	x8, [x9]
	add	x8, x8, x10
	str	x8, [x9]
	.loc	0 44 22 is_stmt 1               ; test_src/modules_test/libs/foo.c:44:22
	ldr	x10, [x0, #8]
	.loc	0 44 12 is_stmt 0               ; test_src/modules_test/libs/foo.c:44:12
	ldr	x8, [x9, #8]
	add	x8, x8, x10
	str	x8, [x9, #8]
	.loc	0 45 22 is_stmt 1               ; test_src/modules_test/libs/foo.c:45:22
	ldr	x10, [x0, #16]
	.loc	0 45 12 is_stmt 0               ; test_src/modules_test/libs/foo.c:45:12
	ldr	x8, [x9, #16]
	add	x8, x8, x10
	str	x8, [x9, #16]
	.loc	0 46 22 is_stmt 1               ; test_src/modules_test/libs/foo.c:46:22
	ldr	x10, [x0, #24]
	.loc	0 46 12 is_stmt 0               ; test_src/modules_test/libs/foo.c:46:12
	ldr	x8, [x9, #24]
	add	x8, x8, x10
	str	x8, [x9, #24]
	.loc	0 47 22 is_stmt 1               ; test_src/modules_test/libs/foo.c:47:22
	ldr	x10, [x1]
	.loc	0 47 12 is_stmt 0               ; test_src/modules_test/libs/foo.c:47:12
	ldr	x8, [x9]
	add	x8, x8, x10
	str	x8, [x9]
	.loc	0 48 22 is_stmt 1               ; test_src/modules_test/libs/foo.c:48:22
	ldr	x10, [x1, #8]
	.loc	0 48 12 is_stmt 0               ; test_src/modules_test/libs/foo.c:48:12
	ldr	x8, [x9, #8]
	add	x8, x8, x10
	str	x8, [x9, #8]
	.loc	0 49 22 is_stmt 1               ; test_src/modules_test/libs/foo.c:49:22
	ldr	x10, [x1, #16]
	.loc	0 49 12 is_stmt 0               ; test_src/modules_test/libs/foo.c:49:12
	ldr	x8, [x9, #16]
	add	x8, x8, x10
	str	x8, [x9, #16]
	.loc	0 50 22 is_stmt 1               ; test_src/modules_test/libs/foo.c:50:22
	ldr	x10, [x1, #24]
	.loc	0 50 12 is_stmt 0               ; test_src/modules_test/libs/foo.c:50:12
	ldr	x8, [x9, #24]
	add	x8, x8, x10
	str	x8, [x9, #24]
	.loc	0 51 3 epilogue_begin is_stmt 1 ; test_src/modules_test/libs/foo.c:51:3
	add	sp, sp, #16
	ret
Ltmp10:
Lfunc_end3:
	.cfi_endproc
                                        ; -- End function
	.globl	_hfa_small                      ; -- Begin function hfa_small
	.p2align	2
_hfa_small:                             ; @hfa_small
Lfunc_begin4:
	.loc	0 55 0                          ; test_src/modules_test/libs/foo.c:55:0
	.cfi_startproc
; %bb.0:
	sub	sp, sp, #16
	.cfi_def_cfa_offset 16
	str	s0, [sp, #8]
	str	s1, [sp, #12]
Ltmp12:
	.loc	0 56 3 prologue_end epilogue_begin ; test_src/modules_test/libs/foo.c:56:3
	add	sp, sp, #16
	ret
Ltmp13:
Lfunc_end4:
	.cfi_endproc
                                        ; -- End function
	.globl	_hfa_big                        ; -- Begin function hfa_big
	.p2align	2
_hfa_big:                               ; @hfa_big
Lfunc_begin5:
	.loc	0 59 0                          ; test_src/modules_test/libs/foo.c:59:0
	.cfi_startproc
; %bb.0:
	sub	sp, sp, #32
	.cfi_def_cfa_offset 32
	str	d0, [sp]
	str	d1, [sp, #8]
	str	d2, [sp, #16]
	str	d3, [sp, #24]
Ltmp15:
	.loc	0 60 3 prologue_end epilogue_begin ; test_src/modules_test/libs/foo.c:60:3
	add	sp, sp, #32
	ret
Ltmp16:
Lfunc_end5:
	.cfi_endproc
                                        ; -- End function
	.section	__TEXT,__cstring,cstring_literals
l_.str:                                 ; @.str
	.asciz	"very small, a.x=%d, b.x=%d, r.x=%d\n"

	.file	1 "/Library/Developer/CommandLineTools/SDKs/MacOSX.sdk/usr/include/_types" "_uint64_t.h" md5 0x77fc5e91653260959605f129691cf9b1